
onepunch:     file format elf64-x86-64


Disassembly of section .init:

0000000000400530 <_init>:
  400530:	48 83 ec 08          	sub    $0x8,%rsp
  400534:	48 8b 05 bd 0a 20 00 	mov    0x200abd(%rip),%rax        # 600ff8 <_DYNAMIC+0x1d0>
  40053b:	48 85 c0             	test   %rax,%rax
  40053e:	74 05                	je     400545 <_init+0x15>
  400540:	e8 7b 00 00 00       	callq  4005c0 <__isoc99_scanf@plt+0x10>
  400545:	48 83 c4 08          	add    $0x8,%rsp
  400549:	c3                   	retq   

Disassembly of section .plt:

0000000000400550 <puts@plt-0x10>:
  400550:	ff 35 b2 0a 20 00    	pushq  0x200ab2(%rip)        # 601008 <_GLOBAL_OFFSET_TABLE_+0x8>
  400556:	ff 25 b4 0a 20 00    	jmpq   *0x200ab4(%rip)        # 601010 <_GLOBAL_OFFSET_TABLE_+0x10>
  40055c:	0f 1f 40 00          	nopl   0x0(%rax)

0000000000400560 <puts@plt>:
  400560:	ff 25 b2 0a 20 00    	jmpq   *0x200ab2(%rip)        # 601018 <_GLOBAL_OFFSET_TABLE_+0x18>
  400566:	68 00 00 00 00       	pushq  $0x0
  40056b:	e9 e0 ff ff ff       	jmpq   400550 <_init+0x20>

0000000000400570 <__stack_chk_fail@plt>:
  400570:	ff 25 aa 0a 20 00    	jmpq   *0x200aaa(%rip)        # 601020 <_GLOBAL_OFFSET_TABLE_+0x20>
  400576:	68 01 00 00 00       	pushq  $0x1
  40057b:	e9 d0 ff ff ff       	jmpq   400550 <_init+0x20>

0000000000400580 <setbuf@plt>:
  400580:	ff 25 a2 0a 20 00    	jmpq   *0x200aa2(%rip)        # 601028 <_GLOBAL_OFFSET_TABLE_+0x28>
  400586:	68 02 00 00 00       	pushq  $0x2
  40058b:	e9 c0 ff ff ff       	jmpq   400550 <_init+0x20>

0000000000400590 <printf@plt>:
  400590:	ff 25 9a 0a 20 00    	jmpq   *0x200a9a(%rip)        # 601030 <_GLOBAL_OFFSET_TABLE_+0x30>
  400596:	68 03 00 00 00       	pushq  $0x3
  40059b:	e9 b0 ff ff ff       	jmpq   400550 <_init+0x20>

00000000004005a0 <__libc_start_main@plt>:
  4005a0:	ff 25 92 0a 20 00    	jmpq   *0x200a92(%rip)        # 601038 <_GLOBAL_OFFSET_TABLE_+0x38>
  4005a6:	68 04 00 00 00       	pushq  $0x4
  4005ab:	e9 a0 ff ff ff       	jmpq   400550 <_init+0x20>

00000000004005b0 <__isoc99_scanf@plt>:
  4005b0:	ff 25 8a 0a 20 00    	jmpq   *0x200a8a(%rip)        # 601040 <_GLOBAL_OFFSET_TABLE_+0x40>
  4005b6:	68 05 00 00 00       	pushq  $0x5
  4005bb:	e9 90 ff ff ff       	jmpq   400550 <_init+0x20>

Disassembly of section .plt.got:

00000000004005c0 <.plt.got>:
  4005c0:	ff 25 32 0a 20 00    	jmpq   *0x200a32(%rip)        # 600ff8 <_DYNAMIC+0x1d0>
  4005c6:	66 90                	xchg   %ax,%ax

Disassembly of section .text:

00000000004005d0 <_start>:
  4005d0:	31 ed                	xor    %ebp,%ebp
  4005d2:	49 89 d1             	mov    %rdx,%r9
  4005d5:	5e                   	pop    %rsi
  4005d6:	48 89 e2             	mov    %rsp,%rdx
  4005d9:	48 83 e4 f0          	and    $0xfffffffffffffff0,%rsp
  4005dd:	50                   	push   %rax
  4005de:	54                   	push   %rsp
  4005df:	49 c7 c0 00 08 40 00 	mov    $0x400800,%r8
  4005e6:	48 c7 c1 90 07 40 00 	mov    $0x400790,%rcx
  4005ed:	48 c7 c7 f2 06 40 00 	mov    $0x4006f2,%rdi
  4005f4:	e8 a7 ff ff ff       	callq  4005a0 <__libc_start_main@plt>
  4005f9:	f4                   	hlt    
  4005fa:	66 0f 1f 44 00 00    	nopw   0x0(%rax,%rax,1)

0000000000400600 <deregister_tm_clones>:
  400600:	b8 5f 10 60 00       	mov    $0x60105f,%eax
  400605:	55                   	push   %rbp
  400606:	48 2d 58 10 60 00    	sub    $0x601058,%rax
  40060c:	48 83 f8 0e          	cmp    $0xe,%rax
  400610:	48 89 e5             	mov    %rsp,%rbp
  400613:	76 1b                	jbe    400630 <deregister_tm_clones+0x30>
  400615:	b8 00 00 00 00       	mov    $0x0,%eax
  40061a:	48 85 c0             	test   %rax,%rax
  40061d:	74 11                	je     400630 <deregister_tm_clones+0x30>
  40061f:	5d                   	pop    %rbp
  400620:	bf 58 10 60 00       	mov    $0x601058,%edi
  400625:	ff e0                	jmpq   *%rax
  400627:	66 0f 1f 84 00 00 00 	nopw   0x0(%rax,%rax,1)
  40062e:	00 00 
  400630:	5d                   	pop    %rbp
  400631:	c3                   	retq   
  400632:	0f 1f 40 00          	nopl   0x0(%rax)
  400636:	66 2e 0f 1f 84 00 00 	nopw   %cs:0x0(%rax,%rax,1)
  40063d:	00 00 00 

0000000000400640 <register_tm_clones>:
  400640:	be 58 10 60 00       	mov    $0x601058,%esi
  400645:	55                   	push   %rbp
  400646:	48 81 ee 58 10 60 00 	sub    $0x601058,%rsi
  40064d:	48 c1 fe 03          	sar    $0x3,%rsi
  400651:	48 89 e5             	mov    %rsp,%rbp
  400654:	48 89 f0             	mov    %rsi,%rax
  400657:	48 c1 e8 3f          	shr    $0x3f,%rax
  40065b:	48 01 c6             	add    %rax,%rsi
  40065e:	48 d1 fe             	sar    %rsi
  400661:	74 15                	je     400678 <register_tm_clones+0x38>
  400663:	b8 00 00 00 00       	mov    $0x0,%eax
  400668:	48 85 c0             	test   %rax,%rax
  40066b:	74 0b                	je     400678 <register_tm_clones+0x38>
  40066d:	5d                   	pop    %rbp
  40066e:	bf 58 10 60 00       	mov    $0x601058,%edi
  400673:	ff e0                	jmpq   *%rax
  400675:	0f 1f 00             	nopl   (%rax)
  400678:	5d                   	pop    %rbp
  400679:	c3                   	retq   
  40067a:	66 0f 1f 44 00 00    	nopw   0x0(%rax,%rax,1)

0000000000400680 <__do_global_dtors_aux>:
  400680:	80 3d d9 09 20 00 00 	cmpb   $0x0,0x2009d9(%rip)        # 601060 <completed.7585>
  400687:	75 11                	jne    40069a <__do_global_dtors_aux+0x1a>
  400689:	55                   	push   %rbp
  40068a:	48 89 e5             	mov    %rsp,%rbp
  40068d:	e8 6e ff ff ff       	callq  400600 <deregister_tm_clones>
  400692:	5d                   	pop    %rbp
  400693:	c6 05 c6 09 20 00 01 	movb   $0x1,0x2009c6(%rip)        # 601060 <completed.7585>
  40069a:	f3 c3                	repz retq 
  40069c:	0f 1f 40 00          	nopl   0x0(%rax)

00000000004006a0 <frame_dummy>:
  4006a0:	bf 20 0e 60 00       	mov    $0x600e20,%edi
  4006a5:	48 83 3f 00          	cmpq   $0x0,(%rdi)
  4006a9:	75 05                	jne    4006b0 <frame_dummy+0x10>
  4006ab:	eb 93                	jmp    400640 <register_tm_clones>
  4006ad:	0f 1f 00             	nopl   (%rax)
  4006b0:	b8 00 00 00 00       	mov    $0x0,%eax
  4006b5:	48 85 c0             	test   %rax,%rax
  4006b8:	74 f1                	je     4006ab <frame_dummy+0xb>
  4006ba:	55                   	push   %rbp
  4006bb:	48 89 e5             	mov    %rsp,%rbp
  4006be:	ff d0                	callq  *%rax
  4006c0:	5d                   	pop    %rbp
  4006c1:	e9 7a ff ff ff       	jmpq   400640 <register_tm_clones>

00000000004006c6 <_>:
  4006c6:	55                   	push   %rbp
  4006c7:	48 89 e5             	mov    %rsp,%rbp
  4006ca:	48 8d 3d 00 00 00 00 	lea    0x0(%rip),%rdi        # 4006d1 <_+0xb>
  4006d1:	48 81 e7 00 f0 ff ff 	and    $0xfffffffffffff000,%rdi
  4006d8:	48 c7 c6 00 10 00 00 	mov    $0x1000,%rsi
  4006df:	48 c7 c2 07 00 00 00 	mov    $0x7,%rdx
  4006e6:	48 c7 c0 0a 00 00 00 	mov    $0xa,%rax
  4006ed:	0f 05                	syscall 
  4006ef:	90                   	nop
  4006f0:	5d                   	pop    %rbp
  4006f1:	c3                   	retq   

00000000004006f2 <main>:
  4006f2:	55                   	push   %rbp
  4006f3:	48 89 e5             	mov    %rsp,%rbp
  4006f6:	48 83 ec 20          	sub    $0x20,%rsp
  4006fa:	64 48 8b 04 25 28 00 	mov    %fs:0x28,%rax
  400701:	00 00 
  400703:	48 89 45 f8          	mov    %rax,-0x8(%rbp)
  400707:	31 c0                	xor    %eax,%eax
  400709:	48 8b 05 48 09 20 00 	mov    0x200948(%rip),%rax        # 601058 <__TMC_END__>
  400710:	be 00 00 00 00       	mov    $0x0,%esi
  400715:	48 89 c7             	mov    %rax,%rdi
  400718:	e8 63 fe ff ff       	callq  400580 <setbuf@plt>
  40071d:	bf 14 08 40 00       	mov    $0x400814,%edi
  400722:	b8 00 00 00 00       	mov    $0x0,%eax
  400727:	e8 64 fe ff ff       	callq  400590 <printf@plt>
  40072c:	48 8d 55 e8          	lea    -0x18(%rbp),%rdx
  400730:	48 8d 45 f0          	lea    -0x10(%rbp),%rax
  400734:	48 89 c6             	mov    %rax,%rsi
  400737:	bf 20 08 40 00       	mov    $0x400820,%edi
  40073c:	b8 00 00 00 00       	mov    $0x0,%eax
  400741:	e8 6a fe ff ff       	callq  4005b0 <__isoc99_scanf@plt>
  400746:	89 45 ec             	mov    %eax,-0x14(%rbp)
  400749:	83 7d ec 02          	cmpl   $0x2,-0x14(%rbp)
  40074d:	74 07                	je     400756 <main+0x64>
  40074f:	b8 00 00 00 00       	mov    $0x0,%eax
  400754:	eb 22                	jmp    400778 <main+0x86>
  400756:	48 8b 45 f0          	mov    -0x10(%rbp),%rax
  40075a:	8b 55 e8             	mov    -0x18(%rbp),%edx
  40075d:	88 10                	mov    %dl,(%rax)
  40075f:	8b 45 e8             	mov    -0x18(%rbp),%eax
  400762:	3d ff 00 00 00       	cmp    $0xff,%eax
  400767:	75 0a                	jne    400773 <main+0x81>
  400769:	bf 28 08 40 00       	mov    $0x400828,%edi
  40076e:	e8 ed fd ff ff       	callq  400560 <puts@plt>
  400773:	b8 00 00 00 00       	mov    $0x0,%eax
  400778:	48 8b 4d f8          	mov    -0x8(%rbp),%rcx
  40077c:	64 48 33 0c 25 28 00 	xor    %fs:0x28,%rcx
  400783:	00 00 
  400785:	74 05                	je     40078c <main+0x9a>
  400787:	e8 e4 fd ff ff       	callq  400570 <__stack_chk_fail@plt>
  40078c:	c9                   	leaveq 
  40078d:	c3                   	retq   
  40078e:	66 90                	xchg   %ax,%ax

0000000000400790 <__libc_csu_init>:
  400790:	41 57                	push   %r15
  400792:	41 56                	push   %r14
  400794:	41 89 ff             	mov    %edi,%r15d
  400797:	41 55                	push   %r13
  400799:	41 54                	push   %r12
  40079b:	4c 8d 25 66 06 20 00 	lea    0x200666(%rip),%r12        # 600e08 <__frame_dummy_init_array_entry>
  4007a2:	55                   	push   %rbp
  4007a3:	48 8d 2d 6e 06 20 00 	lea    0x20066e(%rip),%rbp        # 600e18 <__init_array_end>
  4007aa:	53                   	push   %rbx
  4007ab:	49 89 f6             	mov    %rsi,%r14
  4007ae:	49 89 d5             	mov    %rdx,%r13
  4007b1:	4c 29 e5             	sub    %r12,%rbp
  4007b4:	48 83 ec 08          	sub    $0x8,%rsp
  4007b8:	48 c1 fd 03          	sar    $0x3,%rbp
  4007bc:	e8 6f fd ff ff       	callq  400530 <_init>
  4007c1:	48 85 ed             	test   %rbp,%rbp
  4007c4:	74 20                	je     4007e6 <__libc_csu_init+0x56>
  4007c6:	31 db                	xor    %ebx,%ebx
  4007c8:	0f 1f 84 00 00 00 00 	nopl   0x0(%rax,%rax,1)
  4007cf:	00 
  4007d0:	4c 89 ea             	mov    %r13,%rdx
  4007d3:	4c 89 f6             	mov    %r14,%rsi
  4007d6:	44 89 ff             	mov    %r15d,%edi
  4007d9:	41 ff 14 dc          	callq  *(%r12,%rbx,8)
  4007dd:	48 83 c3 01          	add    $0x1,%rbx
  4007e1:	48 39 eb             	cmp    %rbp,%rbx
  4007e4:	75 ea                	jne    4007d0 <__libc_csu_init+0x40>
  4007e6:	48 83 c4 08          	add    $0x8,%rsp
  4007ea:	5b                   	pop    %rbx
  4007eb:	5d                   	pop    %rbp
  4007ec:	41 5c                	pop    %r12
  4007ee:	41 5d                	pop    %r13
  4007f0:	41 5e                	pop    %r14
  4007f2:	41 5f                	pop    %r15
  4007f4:	c3                   	retq   
  4007f5:	90                   	nop
  4007f6:	66 2e 0f 1f 84 00 00 	nopw   %cs:0x0(%rax,%rax,1)
  4007fd:	00 00 00 

0000000000400800 <__libc_csu_fini>:
  400800:	f3 c3                	repz retq 

Disassembly of section .fini:

0000000000400804 <_fini>:
  400804:	48 83 ec 08          	sub    $0x8,%rsp
  400808:	48 83 c4 08          	add    $0x8,%rsp
  40080c:	c3                   	retq   
